target datalayout = "e-m:e-p270:32:32-p271:32:32-p272:64:64-i64:64-i128:128-f80:128-n8:16:32:64-S128"
target triple = "x86_64-pc-linux-gnu"

%"class.icu_77::FieldPositionHandler.base" = type <{ ptr, i32 }>
%"class.icu_77::FieldPositionIteratorHandler" = type { %"class.icu_77::FieldPositionHandler.base", ptr, ptr, i32, i32 }

; Function Attrs: mustprogress uwtable
define noundef nonnull align 8 dereferenceable(64) ptr @_ZNK6icu_7716SimpleDateFormat6formatERNS_8CalendarERNS_13UnicodeStringEPNS_21FieldPositionIteratorER10UErrorCode(ptr noundef nonnull align 8 dereferenceable(528) %0, ptr noundef nonnull align 8 dereferenceable(192) %1, ptr noundef nonnull align 8 dereferenceable(64) %2, ptr noundef %3, ptr noundef nonnull align 4 dereferenceable(4) %4) unnamed_addr #1 align 2 personality ptr @__gxx_personality_v0 {
  %6 = alloca ptr, align 8
  %7 = alloca ptr, align 8
  %8 = alloca ptr, align 8
  %9 = alloca ptr, align 8
  %10 = alloca ptr, align 8
  %11 = alloca %"class.icu_77::FieldPositionIteratorHandler", align 8
  %12 = alloca ptr, align 8
  %13 = alloca i32, align 4
  store ptr %0, ptr %6, align 8, !tbaa !23
  store ptr %1, ptr %7, align 8, !tbaa !150
  store ptr %2, ptr %8, align 8, !tbaa !72
  store ptr %3, ptr %9, align 8, !tbaa !157
  store ptr %4, ptr %10, align 8, !tbaa !22
  %14 = load ptr, ptr %6, align 8
  call void @llvm.lifetime.start.p0(i64 40, ptr %11) #12
  %15 = load ptr, ptr %9, align 8, !tbaa !157
  %16 = load ptr, ptr %10, align 8, !tbaa !22
  call void @_ZN6icu_7728FieldPositionIteratorHandlerC1EPNS_21FieldPositionIteratorER10UErrorCode(ptr noundef nonnull align 8 dereferenceable(40) %11, ptr noundef %15, ptr noundef nonnull align 4 dereferenceable(4) %16)
  %17 = load ptr, ptr %7, align 8, !tbaa !150
  %18 = load ptr, ptr %8, align 8, !tbaa !72
  %19 = load ptr, ptr %10, align 8, !tbaa !22
  %20 = invoke noundef nonnull align 8 dereferenceable(64) ptr @_ZNK6icu_7716SimpleDateFormat7_formatERNS_8CalendarERNS_13UnicodeStringERNS_20FieldPositionHandlerER10UErrorCode(ptr noundef nonnull align 8 dereferenceable(528) %14, ptr noundef nonnull align 8 dereferenceable(192) %17, ptr noundef nonnull align 8 dereferenceable(64) %18, ptr noundef nonnull align 8 dereferenceable(12) %11, ptr noundef nonnull align 4 dereferenceable(4) %19)
          to label %21 unwind label %22

21:                                               ; preds = %5
  call void @_ZN6icu_7728FieldPositionIteratorHandlerD1Ev(ptr noundef nonnull align 8 dereferenceable(40) %11) #12
  call void @llvm.lifetime.end.p0(i64 40, ptr %11) #12
  ret ptr %20

22:                                               ; preds = %5
  %23 = landingpad { ptr, i32 }
          cleanup
  %24 = extractvalue { ptr, i32 } %23, 0
  store ptr %24, ptr %12, align 8
  %25 = extractvalue { ptr, i32 } %23, 1
  store i32 %25, ptr %13, align 4
  call void @_ZN6icu_7728FieldPositionIteratorHandlerD1Ev(ptr noundef nonnull align 8 dereferenceable(40) %11) #12
  call void @llvm.lifetime.end.p0(i64 40, ptr %11) #12
  br label %26

26:                                               ; preds = %22
  %27 = load ptr, ptr %12, align 8
  %28 = load i32, ptr %13, align 4
  %29 = insertvalue { ptr, i32 } poison, ptr %27, 0
  %30 = insertvalue { ptr, i32 } %29, i32 %28, 1
  resume { ptr, i32 } %30
}