; Function Attrs: mustprogress uwtable
define noundef nonnull align 8 dereferenceable(64) ptr @_ZNK6icu_7716SimpleDateFormat6formatERNS_8CalendarERNS_13UnicodeStringEPNS_21FieldPositionIteratorER10UErrorCode(ptr noundef nonnull align 8 dereferenceable(528) %0, ptr noundef nonnull align 8 dereferenceable(192) %1, ptr noundef nonnull returned align 8 dereferenceable(64) %2, ptr noundef %3, ptr noundef nonnull align 4 dereferenceable(4) %4) unnamed_addr #1 align 2 personality ptr @__gxx_personality_v0 {
  %6 = alloca %"class.icu_77::FieldPositionIteratorHandler", align 8
  call void @llvm.lifetime.start.p0(i64 40, ptr nonnull %6) #23
  call void @_ZN6icu_7728FieldPositionIteratorHandlerC1EPNS_21FieldPositionIteratorER10UErrorCode(ptr noundef nonnull align 8 dereferenceable(40) %6, ptr noundef %3, ptr noundef nonnull align 4 dereferenceable(4) %4)
  %7 = invoke noundef nonnull align 8 dereferenceable(64) ptr @_ZNK6icu_7716SimpleDateFormat7_formatERNS_8CalendarERNS_13UnicodeStringERNS_20FieldPositionHandlerER10UErrorCode(ptr noundef nonnull align 8 dereferenceable(528) %0, ptr noundef nonnull align 8 dereferenceable(192) %1, ptr noundef nonnull align 8 dereferenceable(64) %2, ptr noundef nonnull align 8 dereferenceable(12) %6, ptr noundef nonnull align 4 dereferenceable(4) %4)
          to label %8 unwind label %9

8:                                                ; preds = %5
  call void @_ZN6icu_7728FieldPositionIteratorHandlerD1Ev(ptr noundef nonnull align 8 dereferenceable(40) %6) #23
  call void @llvm.lifetime.end.p0(i64 40, ptr nonnull %6) #23
  ret ptr %2

9:                                                ; preds = %5
  %10 = landingpad { ptr, i32 }
          cleanup
  call void @_ZN6icu_7728FieldPositionIteratorHandlerD1Ev(ptr noundef nonnull align 8 dereferenceable(40) %6) #23
  call void @llvm.lifetime.end.p0(i64 40, ptr nonnull %6) #23
  resume { ptr, i32 } %10
}